target datalayout = "e-m:e-p270:32:32-p271:32:32-p272:64:64-i64:64-i128:128-f80:128-n8:16:32:64-S128"
target triple = "x86_64-pc-linux-gnu"

@hf_mp4_full_box_ver = internal global i32 0, align 4
@hf_mp4_full_box_flags = internal global i32 0, align 4
@hf_mp4_stsz_sample_size = internal global i32 0, align 4
@hf_mp4_stsz_sample_count = internal global i32 0, align 4
@hf_mp4_stsz_entry_size = internal global i32 0, align 4
@ett_mp4_full_box_flags = internal global i32 0, align 4
@.str.170 = private unnamed_addr constant [18 x i8] c"Sample size: %u%s\00", align 1
@.str.171 = private unnamed_addr constant [32 x i8] c" (samples have different sizes)\00", align 1
@.str.172 = private unnamed_addr constant [1 x i8] zeroinitializer, align 1
@.str.173 = private unnamed_addr constant [25 x i8] c"Entry %u: Entry size: %u\00", align 1

; Function Attrs: null_pointer_is_valid sspstrong uwtable
define internal i32 @dissect_mp4_full_box(ptr noundef %0, i32 noundef %1, ptr noundef %2, ptr noundef %3, ptr noundef %4, ptr noundef %5) #0 {
  %7 = alloca ptr, align 8
  %8 = alloca i32, align 4
  %9 = alloca ptr, align 8
  %10 = alloca ptr, align 8
  %11 = alloca ptr, align 8
  %12 = alloca ptr, align 8
  store ptr %0, ptr %7, align 8
  store i32 %1, ptr %8, align 4
  store ptr %2, ptr %9, align 8
  store ptr %3, ptr %10, align 8
  store ptr %4, ptr %11, align 8
  store ptr %5, ptr %12, align 8
  %13 = load ptr, ptr %11, align 8
  %14 = icmp ne ptr %13, null
  br i1 %14, label %15, label %20

15:                                               ; preds = %6
  %16 = load ptr, ptr %7, align 8
  %17 = load i32, ptr %8, align 4
  %18 = call zeroext i8 @tvb_get_uint8(ptr noundef %16, i32 noundef %17)
  %19 = load ptr, ptr %11, align 8
  store i8 %18, ptr %19, align 1
  br label %20

20:                                               ; preds = %15, %6
  %21 = load ptr, ptr %9, align 8
  %22 = load i32, ptr @hf_mp4_full_box_ver, align 4
  %23 = load ptr, ptr %7, align 8
  %24 = load i32, ptr %8, align 4
  %25 = call ptr @proto_tree_add_item(ptr noundef %21, i32 noundef %22, ptr noundef %23, i32 noundef %24, i32 noundef 1, i32 noundef 0)
  %26 = load i32, ptr %8, align 4
  %27 = add i32 %26, 1
  store i32 %27, ptr %8, align 4
  %28 = load ptr, ptr %12, align 8
  %29 = icmp ne ptr %28, null
  br i1 %29, label %30, label %35

30:                                               ; preds = %20
  %31 = load ptr, ptr %7, align 8
  %32 = load i32, ptr %8, align 4
  %33 = call i32 @tvb_get_ntoh24(ptr noundef %31, i32 noundef %32)
  %34 = load ptr, ptr %12, align 8
  store i32 %33, ptr %34, align 4
  br label %35

35:                                               ; preds = %30, %20
  %36 = load ptr, ptr %10, align 8
  %37 = icmp ne ptr %36, null
  br i1 %37, label %38, label %46

38:                                               ; preds = %35
  %39 = load ptr, ptr %9, align 8
  %40 = load ptr, ptr %7, align 8
  %41 = load i32, ptr %8, align 4
  %42 = load i32, ptr @hf_mp4_full_box_flags, align 4
  %43 = load i32, ptr @ett_mp4_full_box_flags, align 4
  %44 = load ptr, ptr %10, align 8
  %45 = call ptr @proto_tree_add_bitmask(ptr noundef %39, ptr noundef %40, i32 noundef %41, i32 noundef %42, i32 noundef %43, ptr noundef %44, i32 noundef 0)
  br label %52

46:                                               ; preds = %35
  %47 = load ptr, ptr %9, align 8
  %48 = load i32, ptr @hf_mp4_full_box_flags, align 4
  %49 = load ptr, ptr %7, align 8
  %50 = load i32, ptr %8, align 4
  %51 = call ptr @proto_tree_add_item(ptr noundef %47, i32 noundef %48, ptr noundef %49, i32 noundef %50, i32 noundef 3, i32 noundef 0)
  br label %52

52:                                               ; preds = %46, %38
  ret i32 4
}

; Function Attrs: null_pointer_is_valid sspstrong uwtable
define internal i32 @dissect_mp4_stsz_body(ptr noundef %0, i32 noundef %1, i32 noundef %2, ptr noundef %3, i32 noundef %4, ptr noundef %5) #0 {
  %7 = alloca i32, align 4
  %8 = alloca ptr, align 8
  %9 = alloca i32, align 4
  %10 = alloca i32, align 4
  %11 = alloca ptr, align 8
  %12 = alloca i32, align 4
  %13 = alloca ptr, align 8
  %14 = alloca i32, align 4
  %15 = alloca i32, align 4
  %16 = alloca i32, align 4
  %17 = alloca i32, align 4
  %18 = alloca i32, align 4
  %19 = alloca i32, align 4
  store ptr %0, ptr %8, align 8
  store i32 %1, ptr %9, align 4
  store i32 %2, ptr %10, align 4
  store ptr %3, ptr %11, align 8
  store i32 %4, ptr %12, align 4
  store ptr %5, ptr %13, align 8
  call void @llvm.lifetime.start.p0(i64 4, ptr %14) #7
  call void @llvm.lifetime.start.p0(i64 4, ptr %15) #7
  call void @llvm.lifetime.start.p0(i64 4, ptr %16) #7
  call void @llvm.lifetime.start.p0(i64 4, ptr %17) #7
  %20 = load i32, ptr %9, align 4
  store i32 %20, ptr %14, align 4
  %21 = load ptr, ptr %8, align 8
  %22 = load i32, ptr %9, align 4
  %23 = load ptr, ptr %13, align 8
  %24 = call i32 @dissect_mp4_full_box(ptr noundef %21, i32 noundef %22, ptr noundef %23, ptr noundef null, ptr noundef null, ptr noundef null)
  %25 = load i32, ptr %9, align 4
  %26 = add i32 %25, %24
  store i32 %26, ptr %9, align 4
  %27 = load ptr, ptr %8, align 8
  %28 = load i32, ptr %9, align 4
  %29 = call i32 @tvb_get_ntohl(ptr noundef %27, i32 noundef %28)
  store i32 %29, ptr %15, align 4
  %30 = load ptr, ptr %13, align 8
  %31 = load i32, ptr @hf_mp4_stsz_sample_size, align 4
  %32 = load ptr, ptr %8, align 8
  %33 = load i32, ptr %9, align 4
  %34 = load i32, ptr %15, align 4
  %35 = load i32, ptr %15, align 4
  %36 = load i32, ptr %15, align 4
  %37 = icmp eq i32 %36, 0
  %38 = select i1 %37, ptr @.str.171, ptr @.str.172
  %39 = call ptr (ptr, i32, ptr, i32, i32, i32, ptr, ...) @proto_tree_add_uint_format(ptr noundef %30, i32 noundef %31, ptr noundef %32, i32 noundef %33, i32 noundef 4, i32 noundef %34, ptr noundef @.str.170, i32 noundef %35, ptr noundef %38)
  %40 = load i32, ptr %9, align 4
  %41 = add i32 %40, 4
  store i32 %41, ptr %9, align 4
  %42 = load ptr, ptr %8, align 8
  %43 = load i32, ptr %9, align 4
  %44 = call i32 @tvb_get_ntohl(ptr noundef %42, i32 noundef %43)
  store i32 %44, ptr %16, align 4
  %45 = load ptr, ptr %13, align 8
  %46 = load i32, ptr @hf_mp4_stsz_sample_count, align 4
  %47 = load ptr, ptr %8, align 8
  %48 = load i32, ptr %9, align 4
  %49 = call ptr @proto_tree_add_item(ptr noundef %45, i32 noundef %46, ptr noundef %47, i32 noundef %48, i32 noundef 4, i32 noundef 0)
  %50 = load i32, ptr %9, align 4
  %51 = add i32 %50, 4
  store i32 %51, ptr %9, align 4
  %52 = load i32, ptr %15, align 4
  %53 = icmp ne i32 %52, 0
  br i1 %53, label %54, label %58

54:                                               ; preds = %6
  %55 = load i32, ptr %9, align 4
  %56 = load i32, ptr %14, align 4
  %57 = sub i32 %55, %56
  store i32 %57, ptr %7, align 4
  store i32 1, ptr %18, align 4
  br label %84

58:                                               ; preds = %6
  store i32 1, ptr %17, align 4
  br label %59

59:                                               ; preds = %77, %58
  %60 = load i32, ptr %17, align 4
  %61 = load i32, ptr %16, align 4
  %62 = icmp ule i32 %60, %61
  br i1 %62, label %63, label %80

63:                                               ; preds = %59
  call void @llvm.lifetime.start.p0(i64 4, ptr %19) #7
  %64 = load ptr, ptr %8, align 8
  %65 = load i32, ptr %9, align 4
  %66 = call i32 @tvb_get_ntohl(ptr noundef %64, i32 noundef %65)
  store i32 %66, ptr %19, align 4
  %67 = load ptr, ptr %13, align 8
  %68 = load i32, ptr @hf_mp4_stsz_entry_size, align 4
  %69 = load ptr, ptr %8, align 8
  %70 = load i32, ptr %9, align 4
  %71 = load i32, ptr %19, align 4
  %72 = load i32, ptr %17, align 4
  %73 = load i32, ptr %19, align 4
  %74 = call ptr (ptr, i32, ptr, i32, i32, i32, ptr, ...) @proto_tree_add_uint_format(ptr noundef %67, i32 noundef %68, ptr noundef %69, i32 noundef %70, i32 noundef 4, i32 noundef %71, ptr noundef @.str.173, i32 noundef %72, i32 noundef %73)
  %75 = load i32, ptr %9, align 4
  %76 = add i32 %75, 4
  store i32 %76, ptr %9, align 4
  call void @llvm.lifetime.end.p0(i64 4, ptr %19) #7
  br label %77

77:                                               ; preds = %63
  %78 = load i32, ptr %17, align 4
  %79 = add i32 %78, 1
  store i32 %79, ptr %17, align 4
  br label %59, !llvm.loop !10

80:                                               ; preds = %59
  %81 = load i32, ptr %9, align 4
  %82 = load i32, ptr %14, align 4
  %83 = sub i32 %81, %82
  store i32 %83, ptr %7, align 4
  store i32 1, ptr %18, align 4
  br label %84

84:                                               ; preds = %80, %54
  call void @llvm.lifetime.end.p0(i64 4, ptr %17) #7
  call void @llvm.lifetime.end.p0(i64 4, ptr %16) #7
  call void @llvm.lifetime.end.p0(i64 4, ptr %15) #7
  call void @llvm.lifetime.end.p0(i64 4, ptr %14) #7
  %85 = load i32, ptr %7, align 4
  ret i32 %85
}