; Function Attrs: null_pointer_is_valid sspstrong uwtable
define internal fastcc void @dissect_mp4_stsz_body(ptr noundef %0, i32 noundef %1, ptr noundef %2) unnamed_addr #0 {
  %4 = load i32, ptr @hf_mp4_full_box_ver, align 4
  %5 = tail call ptr @proto_tree_add_item(ptr noundef %2, i32 noundef %4, ptr noundef %0, i32 noundef %1, i32 noundef 1, i32 noundef 0)
  %6 = add i32 %1, 1
  %7 = load i32, ptr @hf_mp4_full_box_flags, align 4
  %8 = tail call ptr @proto_tree_add_item(ptr noundef %2, i32 noundef %7, ptr noundef %0, i32 noundef %6, i32 noundef 3, i32 noundef 0)
  %9 = add i32 %1, 4
  %10 = tail call i32 @tvb_get_ntohl(ptr noundef %0, i32 noundef %9)
  %11 = load i32, ptr @hf_mp4_stsz_sample_size, align 4
  %12 = icmp ne i32 %10, 0
  %13 = select i1 %12, ptr @.str.172, ptr @.str.171
  %14 = tail call ptr (ptr, i32, ptr, i32, i32, i32, ptr, ...) @proto_tree_add_uint_format(ptr noundef %2, i32 noundef %11, ptr noundef %0, i32 noundef %9, i32 noundef 4, i32 noundef %10, ptr noundef nonnull @.str.170, i32 noundef %10, ptr noundef nonnull %13)
  %15 = add i32 %1, 8
  %16 = tail call i32 @tvb_get_ntohl(ptr noundef %0, i32 noundef %15)
  %17 = load i32, ptr @hf_mp4_stsz_sample_count, align 4
  %18 = tail call ptr @proto_tree_add_item(ptr noundef %2, i32 noundef %17, ptr noundef %0, i32 noundef %15, i32 noundef 4, i32 noundef 0)
  %.not391 = icmp eq i32 %16, 0
  %or.cond = select i1 %12, i1 true, i1 %.not391
  br i1 %or.cond, label %._crit_edge, label %.lr.ph.preheader

.lr.ph.preheader:                                 ; preds = %3
  %19 = add i32 %1, 12
  br label %.lr.ph

.lr.ph:                                           ; preds = %.lr.ph.preheader, %.lr.ph
  %.0373 = phi i32 [ %24, %.lr.ph ], [ 1, %.lr.ph.preheader ]
  %.0382 = phi i32 [ %23, %.lr.ph ], [ %19, %.lr.ph.preheader ]
  %20 = tail call i32 @tvb_get_ntohl(ptr noundef %0, i32 noundef %.0382)
  %21 = load i32, ptr @hf_mp4_stsz_entry_size, align 4
  %22 = tail call ptr (ptr, i32, ptr, i32, i32, i32, ptr, ...) @proto_tree_add_uint_format(ptr noundef %2, i32 noundef %21, ptr noundef %0, i32 noundef %.0382, i32 noundef 4, i32 noundef %20, ptr noundef nonnull @.str.173, i32 noundef %.0373, i32 noundef %20)
  %23 = add i32 %.0382, 4
  %24 = add i32 %.0373, 1
  %.not39 = icmp ugt i32 %24, %16
  br i1 %.not39, label %._crit_edge, label %.lr.ph, !llvm.loop !10

._crit_edge:                                      ; preds = %.lr.ph, %3
  ret void
}